target datalayout = "e-m:e-p270:32:32-p271:32:32-p272:64:64-i64:64-i128:128-f80:128-n8:16:32:64-S128"
target triple = "x86_64-pc-linux-gnu"

%struct.JsonManifestParseState = type { ptr, i32, i32, ptr, ptr, ptr, ptr, i32, ptr, i32, ptr, ptr, ptr, i8, ptr, ptr, ptr }
%struct.JsonManifestParseIncrementalState = type { %struct.JsonLexContext, %struct.JsonSemAction, ptr }
%struct.JsonLexContext = type { ptr, i64, i32, ptr, ptr, ptr, i8, i32, i32, i32, i32, ptr, ptr, ptr, i8, ptr, ptr }
%struct.JsonSemAction = type { ptr, ptr, ptr, ptr, ptr, ptr, ptr, ptr, ptr, ptr }
%struct.JsonManifestParseContext = type { ptr, ptr, ptr, ptr, ptr, ptr }

@.str = private unnamed_addr constant [14 x i8] c"out of memory\00", align 1
@.str.1 = private unnamed_addr constant [42 x i8] c"could not initialize checksum of manifest\00", align 1

; Function Attrs: nounwind uwtable
define dso_local ptr @json_parse_manifest_incremental_init(ptr noundef %0) #0 {
  %2 = alloca ptr, align 8
  %3 = alloca ptr, align 8
  %4 = alloca ptr, align 8
  %5 = alloca ptr, align 8
  store ptr %0, ptr %2, align 8
  call void @llvm.lifetime.start.p0(i64 8, ptr %3) #5
  call void @llvm.lifetime.start.p0(i64 8, ptr %4) #5
  call void @llvm.lifetime.start.p0(i64 8, ptr %5) #5
  %6 = call ptr @palloc(i64 noundef 208)
  store ptr %6, ptr %3, align 8
  %7 = call ptr @palloc(i64 noundef 128)
  store ptr %7, ptr %4, align 8
  %8 = load ptr, ptr %2, align 8
  %9 = load ptr, ptr %4, align 8
  %10 = getelementptr inbounds nuw %struct.JsonManifestParseState, ptr %9, i32 0, i32 0
  store ptr %8, ptr %10, align 8
  %11 = load ptr, ptr %4, align 8
  %12 = getelementptr inbounds nuw %struct.JsonManifestParseState, ptr %11, i32 0, i32 1
  store i32 0, ptr %12, align 8
  %13 = load ptr, ptr %4, align 8
  %14 = getelementptr inbounds nuw %struct.JsonManifestParseState, ptr %13, i32 0, i32 13
  store i8 0, ptr %14, align 8
  %15 = load ptr, ptr %3, align 8
  %16 = getelementptr inbounds nuw %struct.JsonManifestParseIncrementalState, ptr %15, i32 0, i32 0
  %17 = call ptr @makeJsonLexContextIncremental(ptr noundef %16, i32 noundef 6, i1 noundef zeroext true)
  %18 = load ptr, ptr %4, align 8
  %19 = load ptr, ptr %3, align 8
  %20 = getelementptr inbounds nuw %struct.JsonManifestParseIncrementalState, ptr %19, i32 0, i32 1
  %21 = getelementptr inbounds nuw %struct.JsonSemAction, ptr %20, i32 0, i32 0
  store ptr %18, ptr %21, align 8
  %22 = load ptr, ptr %3, align 8
  %23 = getelementptr inbounds nuw %struct.JsonManifestParseIncrementalState, ptr %22, i32 0, i32 1
  %24 = getelementptr inbounds nuw %struct.JsonSemAction, ptr %23, i32 0, i32 1
  store ptr @json_manifest_object_start, ptr %24, align 8
  %25 = load ptr, ptr %3, align 8
  %26 = getelementptr inbounds nuw %struct.JsonManifestParseIncrementalState, ptr %25, i32 0, i32 1
  %27 = getelementptr inbounds nuw %struct.JsonSemAction, ptr %26, i32 0, i32 2
  store ptr @json_manifest_object_end, ptr %27, align 8
  %28 = load ptr, ptr %3, align 8
  %29 = getelementptr inbounds nuw %struct.JsonManifestParseIncrementalState, ptr %28, i32 0, i32 1
  %30 = getelementptr inbounds nuw %struct.JsonSemAction, ptr %29, i32 0, i32 3
  store ptr @json_manifest_array_start, ptr %30, align 8
  %31 = load ptr, ptr %3, align 8
  %32 = getelementptr inbounds nuw %struct.JsonManifestParseIncrementalState, ptr %31, i32 0, i32 1
  %33 = getelementptr inbounds nuw %struct.JsonSemAction, ptr %32, i32 0, i32 4
  store ptr @json_manifest_array_end, ptr %33, align 8
  %34 = load ptr, ptr %3, align 8
  %35 = getelementptr inbounds nuw %struct.JsonManifestParseIncrementalState, ptr %34, i32 0, i32 1
  %36 = getelementptr inbounds nuw %struct.JsonSemAction, ptr %35, i32 0, i32 5
  store ptr @json_manifest_object_field_start, ptr %36, align 8
  %37 = load ptr, ptr %3, align 8
  %38 = getelementptr inbounds nuw %struct.JsonManifestParseIncrementalState, ptr %37, i32 0, i32 1
  %39 = getelementptr inbounds nuw %struct.JsonSemAction, ptr %38, i32 0, i32 6
  store ptr null, ptr %39, align 8
  %40 = load ptr, ptr %3, align 8
  %41 = getelementptr inbounds nuw %struct.JsonManifestParseIncrementalState, ptr %40, i32 0, i32 1
  %42 = getelementptr inbounds nuw %struct.JsonSemAction, ptr %41, i32 0, i32 7
  store ptr null, ptr %42, align 8
  %43 = load ptr, ptr %3, align 8
  %44 = getelementptr inbounds nuw %struct.JsonManifestParseIncrementalState, ptr %43, i32 0, i32 1
  %45 = getelementptr inbounds nuw %struct.JsonSemAction, ptr %44, i32 0, i32 8
  store ptr null, ptr %45, align 8
  %46 = load ptr, ptr %3, align 8
  %47 = getelementptr inbounds nuw %struct.JsonManifestParseIncrementalState, ptr %46, i32 0, i32 1
  %48 = getelementptr inbounds nuw %struct.JsonSemAction, ptr %47, i32 0, i32 9
  store ptr @json_manifest_scalar, ptr %48, align 8
  %49 = call ptr @pg_cryptohash_create(i32 noundef 3)
  store ptr %49, ptr %5, align 8
  %50 = load ptr, ptr %5, align 8
  %51 = icmp eq ptr %50, null
  br i1 %51, label %52, label %57

52:                                               ; preds = %1
  %53 = load ptr, ptr %2, align 8
  %54 = getelementptr inbounds nuw %struct.JsonManifestParseContext, ptr %53, i32 0, i32 5
  %55 = load ptr, ptr %54, align 8
  %56 = load ptr, ptr %2, align 8
  call void (ptr, ptr, ...) %55(ptr noundef %56, ptr noundef @.str) #6
  unreachable

57:                                               ; preds = %1
  %58 = load ptr, ptr %5, align 8
  %59 = call i32 @pg_cryptohash_init(ptr noundef %58)
  %60 = icmp slt i32 %59, 0
  br i1 %60, label %61, label %66

61:                                               ; preds = %57
  %62 = load ptr, ptr %2, align 8
  %63 = getelementptr inbounds nuw %struct.JsonManifestParseContext, ptr %62, i32 0, i32 5
  %64 = load ptr, ptr %63, align 8
  %65 = load ptr, ptr %2, align 8
  call void (ptr, ptr, ...) %64(ptr noundef %65, ptr noundef @.str.1) #6
  unreachable

66:                                               ; preds = %57
  %67 = load ptr, ptr %5, align 8
  %68 = load ptr, ptr %3, align 8
  %69 = getelementptr inbounds nuw %struct.JsonManifestParseIncrementalState, ptr %68, i32 0, i32 2
  store ptr %67, ptr %69, align 8
  %70 = load ptr, ptr %3, align 8
  call void @llvm.lifetime.end.p0(i64 8, ptr %5) #5
  call void @llvm.lifetime.end.p0(i64 8, ptr %4) #5
  call void @llvm.lifetime.end.p0(i64 8, ptr %3) #5
  ret ptr %70
}