; Function Attrs: nounwind uwtable
define dso_local ptr @json_parse_manifest_incremental_init(ptr noundef %0) local_unnamed_addr #0 {
  %2 = tail call ptr @palloc(i64 noundef 208) #8
  %3 = tail call ptr @palloc(i64 noundef 128) #8
  store ptr %0, ptr %3, align 8
  %4 = getelementptr inbounds nuw i8, ptr %3, i64 8
  store i32 0, ptr %4, align 8
  %5 = getelementptr inbounds nuw i8, ptr %3, i64 96
  store i8 0, ptr %5, align 8
  %6 = tail call ptr @makeJsonLexContextIncremental(ptr noundef %2, i32 noundef 6, i1 noundef zeroext true) #8
  %7 = getelementptr inbounds nuw i8, ptr %2, i64 120
  store ptr %3, ptr %7, align 8
  %8 = getelementptr inbounds nuw i8, ptr %2, i64 128
  store ptr @json_manifest_object_start, ptr %8, align 8
  %9 = getelementptr inbounds nuw i8, ptr %2, i64 136
  store ptr @json_manifest_object_end, ptr %9, align 8
  %10 = getelementptr inbounds nuw i8, ptr %2, i64 144
  store ptr @json_manifest_array_start, ptr %10, align 8
  %11 = getelementptr inbounds nuw i8, ptr %2, i64 152
  store ptr @json_manifest_array_end, ptr %11, align 8
  %12 = getelementptr inbounds nuw i8, ptr %2, i64 160
  store ptr @json_manifest_object_field_start, ptr %12, align 8
  %13 = getelementptr inbounds nuw i8, ptr %2, i64 168
  %14 = getelementptr inbounds nuw i8, ptr %2, i64 192
  tail call void @llvm.memset.p0.i64(ptr noundef nonnull align 8 dereferenceable(24) %13, i8 0, i64 24, i1 false)
  store ptr @json_manifest_scalar, ptr %14, align 8
  %15 = tail call ptr @pg_cryptohash_create(i32 noundef 3) #8
  %16 = icmp eq ptr %15, null
  br i1 %16, label %17, label %20

17:                                               ; preds = %1
  %18 = getelementptr inbounds nuw i8, ptr %0, i64 40
  %19 = load ptr, ptr %18, align 8
  tail call void (ptr, ptr, ...) %19(ptr noundef %0, ptr noundef nonnull @.str) #9
  unreachable

20:                                               ; preds = %1
  %21 = tail call i32 @pg_cryptohash_init(ptr noundef nonnull %15) #8
  %22 = icmp slt i32 %21, 0
  br i1 %22, label %23, label %26

23:                                               ; preds = %20
  %24 = getelementptr inbounds nuw i8, ptr %0, i64 40
  %25 = load ptr, ptr %24, align 8
  tail call void (ptr, ptr, ...) %25(ptr noundef %0, ptr noundef nonnull @.str.1) #9
  unreachable

26:                                               ; preds = %20
  %27 = getelementptr inbounds nuw i8, ptr %2, i64 200
  store ptr %15, ptr %27, align 8
  ret ptr %2
}